target datalayout = "e-m:e-p270:32:32-p271:32:32-p272:64:64-i64:64-i128:128-f80:128-n8:16:32:64-S128"
target triple = "x86_64-pc-linux-gnu"

%struct.lxb_html_tokenizer = type { ptr, ptr, ptr, ptr, ptr, ptr, ptr, ptr, ptr, ptr, ptr, ptr, ptr, ptr, ptr, i64, ptr, ptr, ptr, ptr, ptr, i64, i64, ptr, ptr, i64, i64, i32, i32, i8, i32, i32, i8, ptr, i64 }
%struct.lxb_html_token_t = type { ptr, ptr, i64, i64, ptr, ptr, ptr, ptr, ptr, i64, i64, i32 }
%struct.lxb_html_token_attr = type { ptr, ptr, ptr, ptr, ptr, ptr, i64, ptr, ptr, i32 }

; Function Attrs: nounwind uwtable
define internal i32 @lxb_html_tokenizer_temp_realloc(ptr noundef %0, i64 noundef %1) #0 {
  %3 = alloca i32, align 4
  %4 = alloca ptr, align 8
  %5 = alloca i64, align 8
  %6 = alloca i64, align 8
  %7 = alloca i64, align 8
  store ptr %0, ptr %4, align 8
  store i64 %1, ptr %5, align 8
  %8 = load ptr, ptr %4, align 8
  %9 = getelementptr inbounds %struct.lxb_html_tokenizer, ptr %8, i32 0, i32 17
  %10 = load ptr, ptr %9, align 8
  %11 = load ptr, ptr %4, align 8
  %12 = getelementptr inbounds %struct.lxb_html_tokenizer, ptr %11, i32 0, i32 16
  %13 = load ptr, ptr %12, align 8
  %14 = ptrtoint ptr %10 to i64
  %15 = ptrtoint ptr %13 to i64
  %16 = sub i64 %14, %15
  store i64 %16, ptr %6, align 8
  %17 = load ptr, ptr %4, align 8
  %18 = getelementptr inbounds %struct.lxb_html_tokenizer, ptr %17, i32 0, i32 18
  %19 = load ptr, ptr %18, align 8
  %20 = load ptr, ptr %4, align 8
  %21 = getelementptr inbounds %struct.lxb_html_tokenizer, ptr %20, i32 0, i32 16
  %22 = load ptr, ptr %21, align 8
  %23 = ptrtoint ptr %19 to i64
  %24 = ptrtoint ptr %22 to i64
  %25 = sub i64 %23, %24
  %26 = load i64, ptr %5, align 8
  %27 = add i64 %25, %26
  %28 = add i64 %27, 4096
  store i64 %28, ptr %7, align 8
  %29 = load ptr, ptr %4, align 8
  %30 = getelementptr inbounds %struct.lxb_html_tokenizer, ptr %29, i32 0, i32 16
  %31 = load ptr, ptr %30, align 8
  %32 = load i64, ptr %7, align 8
  %33 = call ptr @lexbor_realloc(ptr noundef %31, i64 noundef %32)
  %34 = load ptr, ptr %4, align 8
  %35 = getelementptr inbounds %struct.lxb_html_tokenizer, ptr %34, i32 0, i32 16
  store ptr %33, ptr %35, align 8
  %36 = load ptr, ptr %4, align 8
  %37 = getelementptr inbounds %struct.lxb_html_tokenizer, ptr %36, i32 0, i32 16
  %38 = load ptr, ptr %37, align 8
  %39 = icmp eq ptr %38, null
  br i1 %39, label %40, label %46

40:                                               ; preds = %2
  %41 = load ptr, ptr %4, align 8
  %42 = getelementptr inbounds %struct.lxb_html_tokenizer, ptr %41, i32 0, i32 31
  store i32 2, ptr %42, align 8
  %43 = load ptr, ptr %4, align 8
  %44 = getelementptr inbounds %struct.lxb_html_tokenizer, ptr %43, i32 0, i32 31
  %45 = load i32, ptr %44, align 8
  store i32 %45, ptr %3, align 4
  br label %61

46:                                               ; preds = %2
  %47 = load ptr, ptr %4, align 8
  %48 = getelementptr inbounds %struct.lxb_html_tokenizer, ptr %47, i32 0, i32 16
  %49 = load ptr, ptr %48, align 8
  %50 = load i64, ptr %6, align 8
  %51 = getelementptr inbounds i8, ptr %49, i64 %50
  %52 = load ptr, ptr %4, align 8
  %53 = getelementptr inbounds %struct.lxb_html_tokenizer, ptr %52, i32 0, i32 17
  store ptr %51, ptr %53, align 8
  %54 = load ptr, ptr %4, align 8
  %55 = getelementptr inbounds %struct.lxb_html_tokenizer, ptr %54, i32 0, i32 16
  %56 = load ptr, ptr %55, align 8
  %57 = load i64, ptr %7, align 8
  %58 = getelementptr inbounds i8, ptr %56, i64 %57
  %59 = load ptr, ptr %4, align 8
  %60 = getelementptr inbounds %struct.lxb_html_tokenizer, ptr %59, i32 0, i32 18
  store ptr %58, ptr %60, align 8
  store i32 0, ptr %3, align 4
  br label %61

61:                                               ; preds = %46, %40
  %62 = load i32, ptr %3, align 4
  ret i32 %62
}

; Function Attrs: nounwind uwtable
define internal i32 @lxb_html_tokenizer_temp_append(ptr noundef %0, ptr noundef %1, i64 noundef %2) #0 {
  %4 = alloca i32, align 4
  %5 = alloca ptr, align 8
  %6 = alloca ptr, align 8
  %7 = alloca i64, align 8
  store ptr %0, ptr %5, align 8
  store ptr %1, ptr %6, align 8
  store i64 %2, ptr %7, align 8
  %8 = load ptr, ptr %5, align 8
  %9 = getelementptr inbounds %struct.lxb_html_tokenizer, ptr %8, i32 0, i32 17
  %10 = load ptr, ptr %9, align 8
  %11 = load i64, ptr %7, align 8
  %12 = getelementptr inbounds i8, ptr %10, i64 %11
  %13 = load ptr, ptr %5, align 8
  %14 = getelementptr inbounds %struct.lxb_html_tokenizer, ptr %13, i32 0, i32 18
  %15 = load ptr, ptr %14, align 8
  %16 = icmp ugt ptr %12, %15
  br i1 %16, label %17, label %27

17:                                               ; preds = %3
  %18 = load ptr, ptr %5, align 8
  %19 = load i64, ptr %7, align 8
  %20 = call i32 @lxb_html_tokenizer_temp_realloc(ptr noundef %18, i64 noundef %19)
  %21 = icmp ne i32 %20, 0
  br i1 %21, label %22, label %26

22:                                               ; preds = %17
  %23 = load ptr, ptr %5, align 8
  %24 = getelementptr inbounds %struct.lxb_html_tokenizer, ptr %23, i32 0, i32 31
  %25 = load i32, ptr %24, align 8
  store i32 %25, ptr %4, align 4
  br label %37

26:                                               ; preds = %17
  br label %27

27:                                               ; preds = %26, %3
  %28 = load ptr, ptr %5, align 8
  %29 = getelementptr inbounds %struct.lxb_html_tokenizer, ptr %28, i32 0, i32 17
  %30 = load ptr, ptr %29, align 8
  %31 = load ptr, ptr %6, align 8
  %32 = load i64, ptr %7, align 8
  call void @llvm.memcpy.p0.p0.i64(ptr align 1 %30, ptr align 1 %31, i64 %32, i1 false)
  %33 = load i64, ptr %7, align 8
  %34 = getelementptr inbounds i8, ptr %30, i64 %33
  %35 = load ptr, ptr %5, align 8
  %36 = getelementptr inbounds %struct.lxb_html_tokenizer, ptr %35, i32 0, i32 17
  store ptr %34, ptr %36, align 8
  store i32 0, ptr %4, align 4
  br label %37

37:                                               ; preds = %27, %22
  %38 = load i32, ptr %4, align 4
  ret i32 %38
}

; Function Attrs: nounwind uwtable
define hidden ptr @lxb_html_tokenizer_state_before_attribute_name(ptr noundef %0, ptr noundef %1, ptr noundef %2) #0 {
  %4 = alloca ptr, align 8
  %5 = alloca ptr, align 8
  %6 = alloca ptr, align 8
  %7 = alloca ptr, align 8
  %8 = alloca ptr, align 8
  store ptr %0, ptr %5, align 8
  store ptr %1, ptr %6, align 8
  store ptr %2, ptr %7, align 8
  br label %9

9:                                                ; preds = %115, %3
  %10 = load ptr, ptr %6, align 8
  %11 = load ptr, ptr %7, align 8
  %12 = icmp ne ptr %10, %11
  br i1 %12, label %13, label %118

13:                                               ; preds = %9
  %14 = load ptr, ptr %6, align 8
  %15 = load i8, ptr %14, align 1
  %16 = zext i8 %15 to i32
  switch i32 %16, label %81 [
    i32 9, label %17
    i32 10, label %17
    i32 12, label %17
    i32 13, label %17
    i32 32, label %17
    i32 61, label %18
    i32 47, label %67
    i32 62, label %67
    i32 0, label %71
  ]

17:                                               ; preds = %13, %13, %13, %13, %13
  br label %115

18:                                               ; preds = %13
  br label %19

19:                                               ; preds = %18
  %20 = load ptr, ptr %5, align 8
  %21 = getelementptr inbounds %struct.lxb_html_tokenizer, ptr %20, i32 0, i32 8
  %22 = load ptr, ptr %21, align 8
  %23 = load ptr, ptr %5, align 8
  %24 = getelementptr inbounds %struct.lxb_html_tokenizer, ptr %23, i32 0, i32 10
  %25 = load ptr, ptr %24, align 8
  %26 = call ptr @lxb_html_token_attr_append(ptr noundef %22, ptr noundef %25)
  store ptr %26, ptr %8, align 8
  %27 = load ptr, ptr %8, align 8
  %28 = icmp eq ptr %27, null
  br i1 %28, label %29, label %33

29:                                               ; preds = %19
  %30 = load ptr, ptr %5, align 8
  %31 = getelementptr inbounds %struct.lxb_html_tokenizer, ptr %30, i32 0, i32 31
  store i32 2, ptr %31, align 8
  %32 = load ptr, ptr %7, align 8
  store ptr %32, ptr %4, align 8
  br label %120

33:                                               ; preds = %19
  br label %34

34:                                               ; preds = %33
  br label %35

35:                                               ; preds = %34
  %36 = load ptr, ptr %5, align 8
  %37 = getelementptr inbounds %struct.lxb_html_tokenizer, ptr %36, i32 0, i32 16
  %38 = load ptr, ptr %37, align 8
  %39 = load ptr, ptr %5, align 8
  %40 = getelementptr inbounds %struct.lxb_html_tokenizer, ptr %39, i32 0, i32 17
  store ptr %38, ptr %40, align 8
  %41 = load ptr, ptr %6, align 8
  %42 = load ptr, ptr %5, align 8
  %43 = getelementptr inbounds %struct.lxb_html_tokenizer, ptr %42, i32 0, i32 8
  %44 = load ptr, ptr %43, align 8
  %45 = getelementptr inbounds %struct.lxb_html_token_t, ptr %44, i32 0, i32 7
  %46 = load ptr, ptr %45, align 8
  %47 = getelementptr inbounds %struct.lxb_html_token_attr, ptr %46, i32 0, i32 0
  store ptr %41, ptr %47, align 8
  br label %48

48:                                               ; preds = %35
  br label %49

49:                                               ; preds = %48
  %50 = load ptr, ptr %5, align 8
  %51 = load ptr, ptr %6, align 8
  %52 = call i32 @lxb_html_tokenizer_temp_append(ptr noundef %50, ptr noundef %51, i64 noundef 1)
  %53 = icmp ne i32 %52, 0
  br i1 %53, label %54, label %56

54:                                               ; preds = %49
  %55 = load ptr, ptr %7, align 8
  store ptr %55, ptr %4, align 8
  br label %120

56:                                               ; preds = %49
  br label %57

57:                                               ; preds = %56
  %58 = load ptr, ptr %5, align 8
  %59 = getelementptr inbounds %struct.lxb_html_tokenizer, ptr %58, i32 0, i32 11
  %60 = load ptr, ptr %59, align 8
  %61 = load ptr, ptr %6, align 8
  %62 = call ptr @lxb_html_tokenizer_error_add(ptr noundef %60, ptr noundef %61, i32 noundef 44)
  %63 = load ptr, ptr %5, align 8
  %64 = getelementptr inbounds %struct.lxb_html_tokenizer, ptr %63, i32 0, i32 0
  store ptr @lxb_html_tokenizer_state_attribute_name, ptr %64, align 8
  %65 = load ptr, ptr %6, align 8
  %66 = getelementptr inbounds i8, ptr %65, i64 1
  store ptr %66, ptr %4, align 8
  br label %120

67:                                               ; preds = %13, %13
  %68 = load ptr, ptr %5, align 8
  %69 = getelementptr inbounds %struct.lxb_html_tokenizer, ptr %68, i32 0, i32 0
  store ptr @lxb_html_tokenizer_state_after_attribute_name, ptr %69, align 8
  %70 = load ptr, ptr %6, align 8
  store ptr %70, ptr %4, align 8
  br label %120

71:                                               ; preds = %13
  %72 = load ptr, ptr %5, align 8
  %73 = getelementptr inbounds %struct.lxb_html_tokenizer, ptr %72, i32 0, i32 32
  %74 = load i8, ptr %73, align 4
  %75 = trunc i8 %74 to i1
  br i1 %75, label %76, label %80

76:                                               ; preds = %71
  %77 = load ptr, ptr %5, align 8
  %78 = getelementptr inbounds %struct.lxb_html_tokenizer, ptr %77, i32 0, i32 0
  store ptr @lxb_html_tokenizer_state_after_attribute_name, ptr %78, align 8
  %79 = load ptr, ptr %6, align 8
  store ptr %79, ptr %4, align 8
  br label %120

80:                                               ; preds = %71
  br label %81

81:                                               ; preds = %80, %13
  br label %82

82:                                               ; preds = %81
  %83 = load ptr, ptr %5, align 8
  %84 = getelementptr inbounds %struct.lxb_html_tokenizer, ptr %83, i32 0, i32 8
  %85 = load ptr, ptr %84, align 8
  %86 = load ptr, ptr %5, align 8
  %87 = getelementptr inbounds %struct.lxb_html_tokenizer, ptr %86, i32 0, i32 10
  %88 = load ptr, ptr %87, align 8
  %89 = call ptr @lxb_html_token_attr_append(ptr noundef %85, ptr noundef %88)
  store ptr %89, ptr %8, align 8
  %90 = load ptr, ptr %8, align 8
  %91 = icmp eq ptr %90, null
  br i1 %91, label %92, label %96

92:                                               ; preds = %82
  %93 = load ptr, ptr %5, align 8
  %94 = getelementptr inbounds %struct.lxb_html_tokenizer, ptr %93, i32 0, i32 31
  store i32 2, ptr %94, align 8
  %95 = load ptr, ptr %7, align 8
  store ptr %95, ptr %4, align 8
  br label %120

96:                                               ; preds = %82
  br label %97

97:                                               ; preds = %96
  br label %98

98:                                               ; preds = %97
  %99 = load ptr, ptr %5, align 8
  %100 = getelementptr inbounds %struct.lxb_html_tokenizer, ptr %99, i32 0, i32 16
  %101 = load ptr, ptr %100, align 8
  %102 = load ptr, ptr %5, align 8
  %103 = getelementptr inbounds %struct.lxb_html_tokenizer, ptr %102, i32 0, i32 17
  store ptr %101, ptr %103, align 8
  %104 = load ptr, ptr %6, align 8
  %105 = load ptr, ptr %5, align 8
  %106 = getelementptr inbounds %struct.lxb_html_tokenizer, ptr %105, i32 0, i32 8
  %107 = load ptr, ptr %106, align 8
  %108 = getelementptr inbounds %struct.lxb_html_token_t, ptr %107, i32 0, i32 7
  %109 = load ptr, ptr %108, align 8
  %110 = getelementptr inbounds %struct.lxb_html_token_attr, ptr %109, i32 0, i32 0
  store ptr %104, ptr %110, align 8
  br label %111

111:                                              ; preds = %98
  %112 = load ptr, ptr %5, align 8
  %113 = getelementptr inbounds %struct.lxb_html_tokenizer, ptr %112, i32 0, i32 0
  store ptr @lxb_html_tokenizer_state_attribute_name, ptr %113, align 8
  %114 = load ptr, ptr %6, align 8
  store ptr %114, ptr %4, align 8
  br label %120

115:                                              ; preds = %17
  %116 = load ptr, ptr %6, align 8
  %117 = getelementptr inbounds i8, ptr %116, i32 1
  store ptr %117, ptr %6, align 8
  br label %9

118:                                              ; preds = %9
  %119 = load ptr, ptr %6, align 8
  store ptr %119, ptr %4, align 8
  br label %120

120:                                              ; preds = %118, %111, %92, %76, %67, %57, %54, %29
  %121 = load ptr, ptr %4, align 8
  ret ptr %121
}