; Function Attrs: nounwind uwtable
define hidden ptr @lxb_html_tokenizer_state_before_attribute_name(ptr nocapture noundef %0, ptr noundef %1, ptr noundef readnone %2) #1 {
  %.not50 = icmp eq ptr %1, %2
  br i1 %.not50, label %.loopexit, label %.lr.ph.preheader

.lr.ph.preheader:                                 ; preds = %3
  %4 = ptrtoint ptr %2 to i64
  %5 = ptrtoint ptr %1 to i64
  %6 = sub i64 %4, %5
  %scevgep = getelementptr i8, ptr %1, i64 %6
  br label %.lr.ph

.lr.ph:                                           ; preds = %.lr.ph.preheader, %71
  %.03851 = phi ptr [ %72, %71 ], [ %1, %.lr.ph.preheader ]
  %7 = load i8, ptr %.03851, align 1
  switch i8 %7, label %.loopexit44 [
    i8 9, label %71
    i8 10, label %71
    i8 12, label %71
    i8 13, label %71
    i8 32, label %71
    i8 61, label %8
    i8 47, label %50
    i8 62, label %50
    i8 0, label %51
  ]

8:                                                ; preds = %.lr.ph
  %9 = getelementptr inbounds i8, ptr %0, i64 64
  %10 = load ptr, ptr %9, align 8
  %11 = getelementptr inbounds i8, ptr %0, i64 80
  %12 = load ptr, ptr %11, align 8
  %13 = tail call ptr @lxb_html_token_attr_append(ptr noundef %10, ptr noundef %12) #5
  %14 = icmp eq ptr %13, null
  br i1 %14, label %15, label %17

15:                                               ; preds = %8
  %16 = getelementptr inbounds i8, ptr %0, i64 232
  store i32 2, ptr %16, align 8
  br label %.loopexit

17:                                               ; preds = %8
  %18 = getelementptr inbounds i8, ptr %0, i64 128
  %19 = load ptr, ptr %18, align 8
  %20 = getelementptr inbounds i8, ptr %0, i64 136
  store ptr %19, ptr %20, align 8
  %21 = load ptr, ptr %9, align 8
  %22 = getelementptr inbounds i8, ptr %21, i64 56
  %23 = load ptr, ptr %22, align 8
  store ptr %.03851, ptr %23, align 8
  %24 = load ptr, ptr %20, align 8
  %25 = getelementptr inbounds i8, ptr %24, i64 1
  %26 = getelementptr inbounds i8, ptr %0, i64 144
  %27 = load ptr, ptr %26, align 8
  %28 = icmp ugt ptr %25, %27
  br i1 %28, label %29, label %42

29:                                               ; preds = %17
  %30 = load ptr, ptr %18, align 8
  %31 = ptrtoint ptr %30 to i64
  %32 = ptrtoint ptr %27 to i64
  %33 = add i64 %32, 4097
  %34 = sub i64 %33, %31
  %35 = tail call ptr @lexbor_realloc(ptr noundef %30, i64 noundef %34) #5
  store ptr %35, ptr %18, align 8
  %36 = icmp eq ptr %35, null
  br i1 %36, label %lxb_html_tokenizer_temp_append.exit, label %lxb_html_tokenizer_temp_realloc.exit.thread.i

lxb_html_tokenizer_temp_realloc.exit.thread.i:    ; preds = %29
  %37 = ptrtoint ptr %24 to i64
  %38 = sub i64 %37, %31
  %39 = getelementptr inbounds i8, ptr %35, i64 %38
  store ptr %39, ptr %20, align 8
  %40 = getelementptr inbounds i8, ptr %35, i64 %34
  store ptr %40, ptr %26, align 8
  br label %42

lxb_html_tokenizer_temp_append.exit:              ; preds = %29
  %41 = getelementptr inbounds i8, ptr %0, i64 232
  store i32 2, ptr %41, align 8
  br label %.loopexit

42:                                               ; preds = %17, %lxb_html_tokenizer_temp_realloc.exit.thread.i
  %43 = phi ptr [ %39, %lxb_html_tokenizer_temp_realloc.exit.thread.i ], [ %24, %17 ]
  %44 = load i8, ptr %.03851, align 1
  store i8 %44, ptr %43, align 1
  %45 = getelementptr inbounds i8, ptr %43, i64 1
  store ptr %45, ptr %20, align 8
  %46 = getelementptr inbounds i8, ptr %0, i64 88
  %47 = load ptr, ptr %46, align 8
  %48 = tail call ptr @lxb_html_tokenizer_error_add(ptr noundef %47, ptr noundef nonnull %.03851, i32 noundef 44) #5
  store ptr @lxb_html_tokenizer_state_attribute_name, ptr %0, align 8
  %49 = getelementptr inbounds i8, ptr %.03851, i64 1
  br label %.loopexit

50:                                               ; preds = %.lr.ph, %.lr.ph
  store ptr @lxb_html_tokenizer_state_after_attribute_name, ptr %0, align 8
  br label %.loopexit

51:                                               ; preds = %.lr.ph
  %52 = getelementptr inbounds i8, ptr %0, i64 236
  %53 = load i8, ptr %52, align 4
  %54 = and i8 %53, 1
  %.not40 = icmp eq i8 %54, 0
  br i1 %.not40, label %.loopexit44, label %55

55:                                               ; preds = %51
  store ptr @lxb_html_tokenizer_state_after_attribute_name, ptr %0, align 8
  br label %.loopexit

.loopexit44:                                      ; preds = %.lr.ph, %51
  %56 = getelementptr inbounds i8, ptr %0, i64 64
  %57 = load ptr, ptr %56, align 8
  %58 = getelementptr inbounds i8, ptr %0, i64 80
  %59 = load ptr, ptr %58, align 8
  %60 = tail call ptr @lxb_html_token_attr_append(ptr noundef %57, ptr noundef %59) #5
  %61 = icmp eq ptr %60, null
  br i1 %61, label %62, label %64

62:                                               ; preds = %.loopexit44
  %63 = getelementptr inbounds i8, ptr %0, i64 232
  store i32 2, ptr %63, align 8
  br label %.loopexit

64:                                               ; preds = %.loopexit44
  %65 = getelementptr inbounds i8, ptr %0, i64 128
  %66 = load ptr, ptr %65, align 8
  %67 = getelementptr inbounds i8, ptr %0, i64 136
  store ptr %66, ptr %67, align 8
  %68 = load ptr, ptr %56, align 8
  %69 = getelementptr inbounds i8, ptr %68, i64 56
  %70 = load ptr, ptr %69, align 8
  store ptr %.03851, ptr %70, align 8
  store ptr @lxb_html_tokenizer_state_attribute_name, ptr %0, align 8
  br label %.loopexit

71:                                               ; preds = %.lr.ph, %.lr.ph, %.lr.ph, %.lr.ph, %.lr.ph
  %72 = getelementptr inbounds i8, ptr %.03851, i64 1
  %.not = icmp eq ptr %72, %2
  br i1 %.not, label %.loopexit, label %.lr.ph

.loopexit:                                        ; preds = %71, %3, %lxb_html_tokenizer_temp_append.exit, %64, %62, %55, %50, %42, %15
  %.0 = phi ptr [ %2, %62 ], [ %.03851, %64 ], [ %.03851, %55 ], [ %.03851, %50 ], [ %2, %15 ], [ %49, %42 ], [ %2, %lxb_html_tokenizer_temp_append.exit ], [ %1, %3 ], [ %scevgep, %71 ]
  ret ptr %.0
}